target datalayout = "e-m:e-p270:32:32-p271:32:32-p272:64:64-i64:64-i128:128-f80:128-n8:16:32:64-S128"
target triple = "x86_64-pc-linux-gnu"

%"class.icu_77::DateTimeRule" = type <{ %"class.icu_77::UObject", i32, i32, i32, i32, i32, i32, i32, [4 x i8] }>
%"class.icu_77::UObject" = type { ptr }

; Function Attrs: mustprogress nounwind uwtable
define noundef nonnull align 8 dereferenceable(36) ptr @_ZN6icu_7712DateTimeRuleaSERKS0_(ptr noundef nonnull align 8 dereferenceable(36) %0, ptr noundef nonnull align 8 dereferenceable(36) %1) #0 align 2 {
  %3 = alloca ptr, align 8
  %4 = alloca ptr, align 8
  store ptr %0, ptr %3, align 8, !tbaa !3
  store ptr %1, ptr %4, align 8, !tbaa !3
  %5 = load ptr, ptr %3, align 8
  %6 = load ptr, ptr %4, align 8, !tbaa !3
  %7 = icmp ne ptr %5, %6
  br i1 %7, label %8, label %37

8:                                                ; preds = %2
  %9 = load ptr, ptr %4, align 8, !tbaa !3
  %10 = getelementptr inbounds nuw %"class.icu_77::DateTimeRule", ptr %9, i32 0, i32 1
  %11 = load i32, ptr %10, align 8, !tbaa !14
  %12 = getelementptr inbounds nuw %"class.icu_77::DateTimeRule", ptr %5, i32 0, i32 1
  store i32 %11, ptr %12, align 8, !tbaa !14
  %13 = load ptr, ptr %4, align 8, !tbaa !3
  %14 = getelementptr inbounds nuw %"class.icu_77::DateTimeRule", ptr %13, i32 0, i32 2
  %15 = load i32, ptr %14, align 4, !tbaa !18
  %16 = getelementptr inbounds nuw %"class.icu_77::DateTimeRule", ptr %5, i32 0, i32 2
  store i32 %15, ptr %16, align 4, !tbaa !18
  %17 = load ptr, ptr %4, align 8, !tbaa !3
  %18 = getelementptr inbounds nuw %"class.icu_77::DateTimeRule", ptr %17, i32 0, i32 3
  %19 = load i32, ptr %18, align 8, !tbaa !19
  %20 = getelementptr inbounds nuw %"class.icu_77::DateTimeRule", ptr %5, i32 0, i32 3
  store i32 %19, ptr %20, align 8, !tbaa !19
  %21 = load ptr, ptr %4, align 8, !tbaa !3
  %22 = getelementptr inbounds nuw %"class.icu_77::DateTimeRule", ptr %21, i32 0, i32 4
  %23 = load i32, ptr %22, align 4, !tbaa !20
  %24 = getelementptr inbounds nuw %"class.icu_77::DateTimeRule", ptr %5, i32 0, i32 4
  store i32 %23, ptr %24, align 4, !tbaa !20
  %25 = load ptr, ptr %4, align 8, !tbaa !3
  %26 = getelementptr inbounds nuw %"class.icu_77::DateTimeRule", ptr %25, i32 0, i32 5
  %27 = load i32, ptr %26, align 8, !tbaa !21
  %28 = getelementptr inbounds nuw %"class.icu_77::DateTimeRule", ptr %5, i32 0, i32 5
  store i32 %27, ptr %28, align 8, !tbaa !21
  %29 = load ptr, ptr %4, align 8, !tbaa !3
  %30 = getelementptr inbounds nuw %"class.icu_77::DateTimeRule", ptr %29, i32 0, i32 6
  %31 = load i32, ptr %30, align 4, !tbaa !22
  %32 = getelementptr inbounds nuw %"class.icu_77::DateTimeRule", ptr %5, i32 0, i32 6
  store i32 %31, ptr %32, align 4, !tbaa !22
  %33 = load ptr, ptr %4, align 8, !tbaa !3
  %34 = getelementptr inbounds nuw %"class.icu_77::DateTimeRule", ptr %33, i32 0, i32 7
  %35 = load i32, ptr %34, align 8, !tbaa !23
  %36 = getelementptr inbounds nuw %"class.icu_77::DateTimeRule", ptr %5, i32 0, i32 7
  store i32 %35, ptr %36, align 8, !tbaa !23
  br label %37

37:                                               ; preds = %8, %2
  ret ptr %5
}