; Function Attrs: mustprogress nofree norecurse nosync nounwind willreturn memory(argmem: readwrite) uwtable
define noundef nonnull align 8 dereferenceable(36) ptr @_ZN6icu_7712DateTimeRuleaSERKS0_(ptr noundef nonnull returned writeonly align 8 dereferenceable(36) %0, ptr noundef nonnull readonly align 8 dereferenceable(36) %1) local_unnamed_addr #2 align 2 {
  %.not = icmp eq ptr %0, %1
  br i1 %.not, label %25, label %3

3:                                                ; preds = %2
  %4 = getelementptr inbounds nuw i8, ptr %1, i64 8
  %5 = load i32, ptr %4, align 8, !tbaa !6
  %6 = getelementptr inbounds nuw i8, ptr %0, i64 8
  store i32 %5, ptr %6, align 8, !tbaa !6
  %7 = getelementptr inbounds nuw i8, ptr %1, i64 12
  %8 = load i32, ptr %7, align 4, !tbaa !13
  %9 = getelementptr inbounds nuw i8, ptr %0, i64 12
  store i32 %8, ptr %9, align 4, !tbaa !13
  %10 = getelementptr inbounds nuw i8, ptr %1, i64 16
  %11 = load i32, ptr %10, align 8, !tbaa !14
  %12 = getelementptr inbounds nuw i8, ptr %0, i64 16
  store i32 %11, ptr %12, align 8, !tbaa !14
  %13 = getelementptr inbounds nuw i8, ptr %1, i64 20
  %14 = load i32, ptr %13, align 4, !tbaa !15
  %15 = getelementptr inbounds nuw i8, ptr %0, i64 20
  store i32 %14, ptr %15, align 4, !tbaa !15
  %16 = getelementptr inbounds nuw i8, ptr %1, i64 24
  %17 = load i32, ptr %16, align 8, !tbaa !16
  %18 = getelementptr inbounds nuw i8, ptr %0, i64 24
  store i32 %17, ptr %18, align 8, !tbaa !16
  %19 = getelementptr inbounds nuw i8, ptr %1, i64 28
  %20 = load i32, ptr %19, align 4, !tbaa !17
  %21 = getelementptr inbounds nuw i8, ptr %0, i64 28
  store i32 %20, ptr %21, align 4, !tbaa !17
  %22 = getelementptr inbounds nuw i8, ptr %1, i64 32
  %23 = load i32, ptr %22, align 8, !tbaa !18
  %24 = getelementptr inbounds nuw i8, ptr %0, i64 32
  store i32 %23, ptr %24, align 8, !tbaa !18
  br label %25

25:                                               ; preds = %3, %2
  ret ptr %0
}